ccopy_reg
_reconstructor
p0
(csklearn.pipeline
Pipeline
p1
c__builtin__
object
p2
Ntp3
Rp4
(dp5
S'_sklearn_version'
p6
S'0.18.1'
p7
sS'steps'
p8
(lp9
(S'reduce_dim'
p10
g0
(csklearn.decomposition.pca
PCA
p11
g2
Ntp12
Rp13
(dp14
S'svd_solver'
p15
S'auto'
p16
sS'iterated_power'
p17
g16
sS'random_state'
p18
Nsg6
g7
sS'whiten'
p19
I00
sS'tol'
p20
F0.0
sS'copy'
p21
I01
sS'n_components'
p22
I4
sbtp23
a(S'clf'
p24
g0
(csklearn.svm.classes
SVC
p25
g2
Ntp26
Rp27
(dp28
S'_impl'
p29
S'c_svc'
p30
sS'kernel'
p31
S'poly'
p32
sS'C'
p33
F1.0
sS'verbose'
p34
I00
sS'probability'
p35
I00
sS'coef0'
p36
F0.0
sS'epsilon'
p37
F0.0
sS'max_iter'
p38
I-1
sS'decision_function_shape'
p39
Nsg18
Nsg6
g7
sg20
F0.001
sS'cache_size'
p40
I200
sS'class_weight'
p41
NsS'shrinking'
p42
I01
sS'nu'
p43
F0.0
sS'gamma'
p44
g16
sS'degree'
p45
I3
sbtp46
asb.